target datalayout = "e-m:e-p270:32:32-p271:32:32-p272:64:64-i64:64-i128:128-f80:128-n8:16:32:64-S128"
target triple = "x86_64-pc-linux-gnu"

%struct.H5D_chunk_rec_t = type { [33 x i64], i32, i32, i64 }
%struct.H5D_bt2_ctx_t = type { i32, i64, i64, i32, ptr }

@.str.7 = private unnamed_addr constant [13 x i8] c"%*s%-*s %lu\0A\00", align 1
@.str.8 = private unnamed_addr constant [1 x i8] zeroinitializer, align 1
@.str.9 = private unnamed_addr constant [15 x i8] c"Chunk address:\00", align 1
@.str.10 = private unnamed_addr constant [10 x i8] c"%*s%-*s {\00", align 1
@.str.11 = private unnamed_addr constant [16 x i8] c"Logical offset:\00", align 1
@.str.12 = private unnamed_addr constant [6 x i8] c"%s%lu\00", align 1
@.str.13 = private unnamed_addr constant [3 x i8] c", \00", align 1
@.str.14 = private unnamed_addr constant [3 x i8] c"}\0A\00", align 1
@.str.15 = private unnamed_addr constant [18 x i8] c"%*s%-*s %u bytes\0A\00", align 1
@.str.16 = private unnamed_addr constant [12 x i8] c"Chunk size:\00", align 1
@.str.17 = private unnamed_addr constant [16 x i8] c"%*s%-*s 0x%08x\0A\00", align 1
@.str.18 = private unnamed_addr constant [13 x i8] c"Filter mask:\00", align 1

; Function Attrs: nounwind uwtable
define internal i32 @H5D__bt2_filt_debug(ptr noundef %0, i32 noundef %1, i32 noundef %2, ptr noundef %3, ptr noundef %4) #0 {
  %6 = alloca ptr, align 8
  %7 = alloca i32, align 4
  %8 = alloca i32, align 4
  %9 = alloca ptr, align 8
  %10 = alloca ptr, align 8
  %11 = alloca ptr, align 8
  %12 = alloca ptr, align 8
  %13 = alloca i32, align 4
  store ptr %0, ptr %6, align 8
  store i32 %1, ptr %7, align 4
  store i32 %2, ptr %8, align 4
  store ptr %3, ptr %9, align 8
  store ptr %4, ptr %10, align 8
  %14 = load ptr, ptr %9, align 8
  store ptr %14, ptr %11, align 8
  %15 = load ptr, ptr %10, align 8
  store ptr %15, ptr %12, align 8
  %16 = load ptr, ptr %6, align 8
  %17 = load i32, ptr %7, align 4
  %18 = load i32, ptr %8, align 4
  %19 = load ptr, ptr %11, align 8
  %20 = getelementptr inbounds %struct.H5D_chunk_rec_t, ptr %19, i32 0, i32 3
  %21 = load i64, ptr %20, align 8
  %22 = call i32 (ptr, ptr, ...) @fprintf(ptr noundef %16, ptr noundef @.str.7, i32 noundef %17, ptr noundef @.str.8, i32 noundef %18, ptr noundef @.str.9, i64 noundef %21) #5
  %23 = load ptr, ptr %6, align 8
  %24 = load i32, ptr %7, align 4
  %25 = load i32, ptr %8, align 4
  %26 = load ptr, ptr %11, align 8
  %27 = getelementptr inbounds %struct.H5D_chunk_rec_t, ptr %26, i32 0, i32 1
  %28 = load i32, ptr %27, align 8
  %29 = call i32 (ptr, ptr, ...) @fprintf(ptr noundef %23, ptr noundef @.str.15, i32 noundef %24, ptr noundef @.str.8, i32 noundef %25, ptr noundef @.str.16, i32 noundef %28) #5
  %30 = load ptr, ptr %6, align 8
  %31 = load i32, ptr %7, align 4
  %32 = load i32, ptr %8, align 4
  %33 = load ptr, ptr %11, align 8
  %34 = getelementptr inbounds %struct.H5D_chunk_rec_t, ptr %33, i32 0, i32 2
  %35 = load i32, ptr %34, align 4
  %36 = call i32 (ptr, ptr, ...) @fprintf(ptr noundef %30, ptr noundef @.str.17, i32 noundef %31, ptr noundef @.str.8, i32 noundef %32, ptr noundef @.str.18, i32 noundef %35) #5
  %37 = load ptr, ptr %6, align 8
  %38 = load i32, ptr %7, align 4
  %39 = load i32, ptr %8, align 4
  %40 = call i32 (ptr, ptr, ...) @fprintf(ptr noundef %37, ptr noundef @.str.10, i32 noundef %38, ptr noundef @.str.8, i32 noundef %39, ptr noundef @.str.11) #5
  store i32 0, ptr %13, align 4
  br label %41

41:                                               ; preds = %68, %5
  %42 = load i32, ptr %13, align 4
  %43 = load ptr, ptr %12, align 8
  %44 = getelementptr inbounds %struct.H5D_bt2_ctx_t, ptr %43, i32 0, i32 3
  %45 = load i32, ptr %44, align 8
  %46 = icmp ult i32 %42, %45
  br i1 %46, label %47, label %71

47:                                               ; preds = %41
  %48 = load ptr, ptr %6, align 8
  %49 = load i32, ptr %13, align 4
  %50 = icmp ne i32 %49, 0
  %51 = select i1 %50, ptr @.str.13, ptr @.str.8
  %52 = load ptr, ptr %11, align 8
  %53 = getelementptr inbounds %struct.H5D_chunk_rec_t, ptr %52, i32 0, i32 0
  %54 = load i32, ptr %13, align 4
  %55 = zext i32 %54 to i64
  %56 = getelementptr inbounds [33 x i64], ptr %53, i64 0, i64 %55
  %57 = load i64, ptr %56, align 8
  %58 = load ptr, ptr %12, align 8
  %59 = getelementptr inbounds %struct.H5D_bt2_ctx_t, ptr %58, i32 0, i32 4
  %60 = load ptr, ptr %59, align 8
  %61 = load i32, ptr %13, align 4
  %62 = zext i32 %61 to i64
  %63 = getelementptr inbounds i32, ptr %60, i64 %62
  %64 = load i32, ptr %63, align 4
  %65 = zext i32 %64 to i64
  %66 = mul i64 %57, %65
  %67 = call i32 (ptr, ptr, ...) @fprintf(ptr noundef %48, ptr noundef @.str.12, ptr noundef %51, i64 noundef %66) #5
  br label %68

68:                                               ; preds = %47
  %69 = load i32, ptr %13, align 4
  %70 = add i32 %69, 1
  store i32 %70, ptr %13, align 4
  br label %41

71:                                               ; preds = %41
  %72 = load ptr, ptr %6, align 8
  %73 = call i32 @fputs(ptr noundef @.str.14, ptr noundef %72)
  ret i32 0
}