; Function Attrs: nofree nounwind uwtable
define internal noundef i32 @H5D__bt2_filt_debug(ptr nocapture noundef %0, i32 noundef %1, i32 noundef %2, ptr nocapture noundef readonly %3, ptr nocapture noundef readonly %4) #5 {
  %6 = getelementptr inbounds i8, ptr %3, i64 272
  %7 = load i64, ptr %6, align 8
  %8 = tail call i32 (ptr, ptr, ...) @fprintf(ptr noundef %0, ptr noundef nonnull @.str.7, i32 noundef %1, ptr noundef nonnull @.str.8, i32 noundef %2, ptr noundef nonnull @.str.9, i64 noundef %7) #14
  %9 = getelementptr inbounds i8, ptr %3, i64 264
  %10 = load i32, ptr %9, align 8
  %11 = tail call i32 (ptr, ptr, ...) @fprintf(ptr noundef %0, ptr noundef nonnull @.str.15, i32 noundef %1, ptr noundef nonnull @.str.8, i32 noundef %2, ptr noundef nonnull @.str.16, i32 noundef %10) #14
  %12 = getelementptr inbounds i8, ptr %3, i64 268
  %13 = load i32, ptr %12, align 4
  %14 = tail call i32 (ptr, ptr, ...) @fprintf(ptr noundef %0, ptr noundef nonnull @.str.17, i32 noundef %1, ptr noundef nonnull @.str.8, i32 noundef %2, ptr noundef nonnull @.str.18, i32 noundef %13) #14
  %15 = tail call i32 (ptr, ptr, ...) @fprintf(ptr noundef %0, ptr noundef nonnull @.str.10, i32 noundef %1, ptr noundef nonnull @.str.8, i32 noundef %2, ptr noundef nonnull @.str.11) #14
  %16 = getelementptr inbounds i8, ptr %4, i64 24
  %17 = load i32, ptr %16, align 8
  %.not27 = icmp eq i32 %17, 0
  br i1 %.not27, label %._crit_edge, label %.lr.ph

.lr.ph:                                           ; preds = %5
  %18 = getelementptr inbounds i8, ptr %4, i64 32
  br label %19

19:                                               ; preds = %.lr.ph, %19
  %indvars.iv = phi i64 [ 0, %.lr.ph ], [ %indvars.iv.next, %19 ]
  %.not = icmp eq i64 %indvars.iv, 0
  %20 = select i1 %.not, ptr @.str.8, ptr @.str.13
  %21 = getelementptr inbounds [33 x i64], ptr %3, i64 0, i64 %indvars.iv
  %22 = load i64, ptr %21, align 8
  %23 = load ptr, ptr %18, align 8
  %24 = getelementptr inbounds i32, ptr %23, i64 %indvars.iv
  %25 = load i32, ptr %24, align 4
  %26 = zext i32 %25 to i64
  %27 = mul i64 %22, %26
  %28 = tail call i32 (ptr, ptr, ...) @fprintf(ptr noundef %0, ptr noundef nonnull @.str.12, ptr noundef nonnull %20, i64 noundef %27) #14
  %indvars.iv.next = add nuw nsw i64 %indvars.iv, 1
  %29 = load i32, ptr %16, align 8
  %30 = zext i32 %29 to i64
  %31 = icmp ult i64 %indvars.iv.next, %30
  br i1 %31, label %19, label %._crit_edge

._crit_edge:                                      ; preds = %19, %5
  %32 = tail call i64 @fwrite(ptr nonnull @.str.14, i64 2, i64 1, ptr %0)
  ret i32 0
}